target datalayout = "e-m:e-p270:32:32-p271:32:32-p272:64:64-i64:64-i128:128-f80:128-n8:16:32:64-S128"
target triple = "x86_64-pc-linux-gnu"

%"struct.Luau::Lexeme" = type { i32, %"struct.Luau::Location", i32, %union.anon }
%"struct.Luau::Location" = type { %"struct.Luau::Position", %"struct.Luau::Position" }
%"struct.Luau::Position" = type { i32, i32 }
%union.anon = type { ptr }
%"class.Luau::Lexer" = type { ptr, i64, i32, i32, i32, %"struct.Luau::Lexeme", %"struct.Luau::Location", ptr, i8, i8, %"class.std::vector" }
%"class.std::vector" = type { %"struct.std::_Vector_base" }
%"struct.std::_Vector_base" = type { %"struct.std::_Vector_base<Luau::Lexer::BraceType, std::allocator<Luau::Lexer::BraceType>>::_Vector_impl" }
%"struct.std::_Vector_base<Luau::Lexer::BraceType, std::allocator<Luau::Lexer::BraceType>>::_Vector_impl" = type { %"struct.std::_Vector_base<Luau::Lexer::BraceType, std::allocator<Luau::Lexer::BraceType>>::_Vector_impl_data" }
%"struct.std::_Vector_base<Luau::Lexer::BraceType, std::allocator<Luau::Lexer::BraceType>>::_Vector_impl_data" = type { ptr, ptr, ptr }

; Function Attrs: inlinehint mustprogress nounwind uwtable
define linkonce_odr dso_local noundef zeroext i1 @_ZN4Luau9isNewlineEc(i8 noundef signext %0) #7 comdat {
  %2 = alloca i8, align 1
  store i8 %0, ptr %2, align 1, !tbaa !34
  %3 = load i8, ptr %2, align 1, !tbaa !34
  %4 = sext i8 %3 to i32
  %5 = icmp eq i32 %4, 10
  ret i1 %5
}

; Function Attrs: alwaysinline mustprogress nounwind uwtable
define linkonce_odr dso_local void @_ZN4Luau5Lexer10consumeAnyEv(ptr noundef nonnull align 8 dereferenceable(120) %0) #8 comdat align 2 {
  %2 = alloca ptr, align 8
  store ptr %0, ptr %2, align 8, !tbaa !71
  %3 = load ptr, ptr %2, align 8
  %4 = getelementptr inbounds nuw %"class.Luau::Lexer", ptr %3, i32 0, i32 0
  %5 = load ptr, ptr %4, align 8, !tbaa !73
  %6 = getelementptr inbounds nuw %"class.Luau::Lexer", ptr %3, i32 0, i32 2
  %7 = load i32, ptr %6, align 8, !tbaa !80
  %8 = zext i32 %7 to i64
  %9 = getelementptr inbounds nuw i8, ptr %5, i64 %8
  %10 = load i8, ptr %9, align 1, !tbaa !34
  %11 = call noundef zeroext i1 @_ZN4Luau9isNewlineEc(i8 noundef signext %10)
  br i1 %11, label %12, label %20

12:                                               ; preds = %1
  %13 = getelementptr inbounds nuw %"class.Luau::Lexer", ptr %3, i32 0, i32 3
  %14 = load i32, ptr %13, align 4, !tbaa !82
  %15 = add i32 %14, 1
  store i32 %15, ptr %13, align 4, !tbaa !82
  %16 = getelementptr inbounds nuw %"class.Luau::Lexer", ptr %3, i32 0, i32 2
  %17 = load i32, ptr %16, align 8, !tbaa !80
  %18 = add i32 %17, 1
  %19 = getelementptr inbounds nuw %"class.Luau::Lexer", ptr %3, i32 0, i32 4
  store i32 %18, ptr %19, align 8, !tbaa !84
  br label %20

20:                                               ; preds = %12, %1
  %21 = getelementptr inbounds nuw %"class.Luau::Lexer", ptr %3, i32 0, i32 2
  %22 = load i32, ptr %21, align 8, !tbaa !80
  %23 = add i32 %22, 1
  store i32 %23, ptr %21, align 8, !tbaa !80
  ret void
}

; Function Attrs: inlinehint mustprogress nounwind uwtable
define linkonce_odr dso_local noundef zeroext i1 @_ZN4Luau7isSpaceEc(i8 noundef signext %0) #7 comdat {
  %2 = alloca i8, align 1
  store i8 %0, ptr %2, align 1, !tbaa !34
  %3 = load i8, ptr %2, align 1, !tbaa !34
  %4 = sext i8 %3 to i32
  %5 = icmp eq i32 %4, 32
  br i1 %5, label %26, label %6

6:                                                ; preds = %1
  %7 = load i8, ptr %2, align 1, !tbaa !34
  %8 = sext i8 %7 to i32
  %9 = icmp eq i32 %8, 9
  br i1 %9, label %26, label %10

10:                                               ; preds = %6
  %11 = load i8, ptr %2, align 1, !tbaa !34
  %12 = sext i8 %11 to i32
  %13 = icmp eq i32 %12, 13
  br i1 %13, label %26, label %14

14:                                               ; preds = %10
  %15 = load i8, ptr %2, align 1, !tbaa !34
  %16 = sext i8 %15 to i32
  %17 = icmp eq i32 %16, 10
  br i1 %17, label %26, label %18

18:                                               ; preds = %14
  %19 = load i8, ptr %2, align 1, !tbaa !34
  %20 = sext i8 %19 to i32
  %21 = icmp eq i32 %20, 11
  br i1 %21, label %26, label %22

22:                                               ; preds = %18
  %23 = load i8, ptr %2, align 1, !tbaa !34
  %24 = sext i8 %23 to i32
  %25 = icmp eq i32 %24, 12
  br label %26

26:                                               ; preds = %22, %18, %14, %10, %6, %1
  %27 = phi i1 [ true, %18 ], [ true, %14 ], [ true, %10 ], [ true, %6 ], [ true, %1 ], [ %25, %22 ]
  ret i1 %27
}

; Function Attrs: alwaysinline mustprogress nounwind uwtable
define linkonce_odr dso_local noundef signext i8 @_ZNK4Luau5Lexer6peekchEv(ptr noundef nonnull align 8 dereferenceable(120) %0) #8 comdat align 2 {
  %2 = alloca ptr, align 8
  store ptr %0, ptr %2, align 8, !tbaa !71
  %3 = load ptr, ptr %2, align 8
  %4 = getelementptr inbounds nuw %"class.Luau::Lexer", ptr %3, i32 0, i32 2
  %5 = load i32, ptr %4, align 8, !tbaa !80
  %6 = zext i32 %5 to i64
  %7 = getelementptr inbounds nuw %"class.Luau::Lexer", ptr %3, i32 0, i32 1
  %8 = load i64, ptr %7, align 8, !tbaa !79
  %9 = icmp ult i64 %6, %8
  br i1 %9, label %10, label %19

10:                                               ; preds = %1
  %11 = getelementptr inbounds nuw %"class.Luau::Lexer", ptr %3, i32 0, i32 0
  %12 = load ptr, ptr %11, align 8, !tbaa !73
  %13 = getelementptr inbounds nuw %"class.Luau::Lexer", ptr %3, i32 0, i32 2
  %14 = load i32, ptr %13, align 8, !tbaa !80
  %15 = zext i32 %14 to i64
  %16 = getelementptr inbounds nuw i8, ptr %12, i64 %15
  %17 = load i8, ptr %16, align 1, !tbaa !34
  %18 = sext i8 %17 to i32
  br label %20

19:                                               ; preds = %1
  br label %20

20:                                               ; preds = %19, %10
  %21 = phi i32 [ %18, %10 ], [ 0, %19 ]
  %22 = trunc i32 %21 to i8
  ret i8 %22
}

; Function Attrs: mustprogress uwtable
define dso_local noundef nonnull align 8 dereferenceable(32) ptr @_ZN4Luau5Lexer4nextEbb(ptr noundef nonnull align 8 dereferenceable(120) %0, i1 noundef zeroext %1, i1 noundef zeroext %2) #4 align 2 {
  %4 = alloca ptr, align 8
  %5 = alloca i8, align 1
  %6 = alloca i8, align 1
  %7 = alloca %"struct.Luau::Lexeme", align 8
  store ptr %0, ptr %4, align 8, !tbaa !71
  %8 = zext i1 %1 to i8
  store i8 %8, ptr %5, align 1, !tbaa !13
  %9 = zext i1 %2 to i8
  store i8 %9, ptr %6, align 1, !tbaa !13
  %10 = load ptr, ptr %4, align 8
  br label %11

11:                                               ; preds = %40, %3
  br label %12

12:                                               ; preds = %15, %11
  %13 = call noundef signext i8 @_ZNK4Luau5Lexer6peekchEv(ptr noundef nonnull align 8 dereferenceable(120) %10)
  %14 = call noundef zeroext i1 @_ZN4Luau7isSpaceEc(i8 noundef signext %13)
  br i1 %14, label %15, label %16

15:                                               ; preds = %12
  call void @_ZN4Luau5Lexer10consumeAnyEv(ptr noundef nonnull align 8 dereferenceable(120) %10)
  br label %12, !llvm.loop !92

16:                                               ; preds = %12
  %17 = load i8, ptr %6, align 1, !tbaa !13, !range !15, !noundef !16
  %18 = trunc i8 %17 to i1
  br i1 %18, label %19, label %23

19:                                               ; preds = %16
  %20 = getelementptr inbounds nuw %"class.Luau::Lexer", ptr %10, i32 0, i32 5
  %21 = getelementptr inbounds nuw %"struct.Luau::Lexeme", ptr %20, i32 0, i32 1
  %22 = getelementptr inbounds nuw %"class.Luau::Lexer", ptr %10, i32 0, i32 6
  call void @llvm.memcpy.p0.p0.i64(ptr align 8 %22, ptr align 4 %21, i64 16, i1 false), !tbaa.struct !32
  br label %23

23:                                               ; preds = %19, %16
  call void @llvm.lifetime.start.p0(i64 32, ptr %7) #18
  call void @_ZN4Luau5Lexer8readNextEv(ptr dead_on_unwind writable sret(%"struct.Luau::Lexeme") align 8 %7, ptr noundef nonnull align 8 dereferenceable(120) %10)
  %24 = getelementptr inbounds nuw %"class.Luau::Lexer", ptr %10, i32 0, i32 5
  call void @llvm.memcpy.p0.p0.i64(ptr align 8 %24, ptr align 8 %7, i64 32, i1 false), !tbaa.struct !93
  call void @llvm.lifetime.end.p0(i64 32, ptr %7) #18
  store i8 0, ptr %6, align 1, !tbaa !13
  br label %25

25:                                               ; preds = %23
  %26 = load i8, ptr %5, align 1, !tbaa !13, !range !15, !noundef !16
  %27 = trunc i8 %26 to i1
  br i1 %27, label %28, label %40

28:                                               ; preds = %25
  %29 = getelementptr inbounds nuw %"class.Luau::Lexer", ptr %10, i32 0, i32 5
  %30 = getelementptr inbounds nuw %"struct.Luau::Lexeme", ptr %29, i32 0, i32 0
  %31 = load i32, ptr %30, align 8, !tbaa !94
  %32 = icmp eq i32 %31, 282
  br i1 %32, label %38, label %33

33:                                               ; preds = %28
  %34 = getelementptr inbounds nuw %"class.Luau::Lexer", ptr %10, i32 0, i32 5
  %35 = getelementptr inbounds nuw %"struct.Luau::Lexeme", ptr %34, i32 0, i32 0
  %36 = load i32, ptr %35, align 8, !tbaa !94
  %37 = icmp eq i32 %36, 283
  br label %38

38:                                               ; preds = %33, %28
  %39 = phi i1 [ true, %28 ], [ %37, %33 ]
  br label %40

40:                                               ; preds = %38, %25
  %41 = phi i1 [ false, %25 ], [ %39, %38 ]
  br i1 %41, label %11, label %42, !llvm.loop !95

42:                                               ; preds = %40
  %43 = getelementptr inbounds nuw %"class.Luau::Lexer", ptr %10, i32 0, i32 5
  ret ptr %43
}