; Function Attrs: mustprogress uwtable
define dso_local noundef nonnull align 8 dereferenceable(32) ptr @_ZN4Luau5Lexer4nextEbb(ptr noundef nonnull align 8 dereferenceable(120) %0, i1 noundef zeroext %1, i1 noundef zeroext %2) local_unnamed_addr #5 align 2 {
  %4 = alloca %"struct.Luau::Lexeme", align 8
  %5 = getelementptr inbounds nuw i8, ptr %0, i64 16
  %6 = getelementptr inbounds nuw i8, ptr %0, i64 8
  %7 = getelementptr inbounds nuw i8, ptr %0, i64 20
  %8 = getelementptr inbounds nuw i8, ptr %0, i64 24
  %9 = getelementptr inbounds nuw i8, ptr %0, i64 36
  %10 = getelementptr inbounds nuw i8, ptr %0, i64 64
  %11 = getelementptr inbounds nuw i8, ptr %0, i64 32
  br i1 %1, label %.critedge2.us, label %.critedge2

.critedge2.us:                                    ; preds = %3, %27
  %.0.us = phi i1 [ false, %27 ], [ %2, %3 ]
  %12 = load i64, ptr %6, align 8, !tbaa !59
  %.promoted.us = load i32, ptr %5, align 8, !tbaa !60
  %13 = zext i32 %.promoted.us to i64
  %14 = icmp ugt i64 %12, %13
  br i1 %14, label %_ZNK4Luau5Lexer6peekchEv.exit.lr.ph.us, label %_ZN4Luau7isSpaceEc.exit.us

_ZNK4Luau5Lexer6peekchEv.exit.us:                 ; preds = %_ZNK4Luau5Lexer6peekchEv.exit.lr.ph.us, %_ZN4Luau5Lexer10consumeAnyEv.exit.us
  %15 = phi i32 [ %.promoted5.us, %_ZNK4Luau5Lexer6peekchEv.exit.lr.ph.us ], [ %23, %_ZN4Luau5Lexer10consumeAnyEv.exit.us ]
  %16 = phi i64 [ %13, %_ZNK4Luau5Lexer6peekchEv.exit.lr.ph.us ], [ %24, %_ZN4Luau5Lexer10consumeAnyEv.exit.us ]
  %17 = phi i32 [ %.promoted.us, %_ZNK4Luau5Lexer6peekchEv.exit.lr.ph.us ], [ %.pre-phi, %_ZN4Luau5Lexer10consumeAnyEv.exit.us ]
  %18 = getelementptr inbounds nuw i8, ptr %30, i64 %16
  %19 = load i8, ptr %18, align 1, !tbaa !15
  switch i8 %19, label %_ZN4Luau7isSpaceEc.exit.us [
    i8 10, label %20
    i8 9, label %._ZN4Luau5Lexer10consumeAnyEv.exit.us_crit_edge
    i8 11, label %._ZN4Luau5Lexer10consumeAnyEv.exit.us_crit_edge
    i8 12, label %._ZN4Luau5Lexer10consumeAnyEv.exit.us_crit_edge
    i8 13, label %._ZN4Luau5Lexer10consumeAnyEv.exit.us_crit_edge
    i8 32, label %._ZN4Luau5Lexer10consumeAnyEv.exit.us_crit_edge
  ]

._ZN4Luau5Lexer10consumeAnyEv.exit.us_crit_edge:  ; preds = %_ZNK4Luau5Lexer6peekchEv.exit.us, %_ZNK4Luau5Lexer6peekchEv.exit.us, %_ZNK4Luau5Lexer6peekchEv.exit.us, %_ZNK4Luau5Lexer6peekchEv.exit.us, %_ZNK4Luau5Lexer6peekchEv.exit.us
  %.pre = add i32 %17, 1
  br label %_ZN4Luau5Lexer10consumeAnyEv.exit.us

20:                                               ; preds = %_ZNK4Luau5Lexer6peekchEv.exit.us
  %21 = add i32 %15, 1
  store i32 %21, ptr %7, align 4, !tbaa !66
  %22 = add i32 %17, 1
  store i32 %22, ptr %8, align 8, !tbaa !67
  br label %_ZN4Luau5Lexer10consumeAnyEv.exit.us

_ZN4Luau5Lexer10consumeAnyEv.exit.us:             ; preds = %._ZN4Luau5Lexer10consumeAnyEv.exit.us_crit_edge, %20
  %.pre-phi = phi i32 [ %.pre, %._ZN4Luau5Lexer10consumeAnyEv.exit.us_crit_edge ], [ %22, %20 ]
  %23 = phi i32 [ %15, %._ZN4Luau5Lexer10consumeAnyEv.exit.us_crit_edge ], [ %21, %20 ]
  store i32 %.pre-phi, ptr %5, align 8, !tbaa !60
  %24 = zext i32 %.pre-phi to i64
  %25 = icmp ugt i64 %12, %24
  br i1 %25, label %_ZNK4Luau5Lexer6peekchEv.exit.us, label %_ZN4Luau7isSpaceEc.exit.us, !llvm.loop !71

_ZN4Luau7isSpaceEc.exit.us:                       ; preds = %_ZN4Luau5Lexer10consumeAnyEv.exit.us, %_ZNK4Luau5Lexer6peekchEv.exit.us, %.critedge2.us
  br i1 %.0.us, label %26, label %27

26:                                               ; preds = %_ZN4Luau7isSpaceEc.exit.us
  call void @llvm.memcpy.p0.p0.i64(ptr noundef nonnull align 8 dereferenceable(16) %10, ptr noundef nonnull align 4 dereferenceable(16) %9, i64 16, i1 false), !tbaa.struct !13
  br label %27

27:                                               ; preds = %26, %_ZN4Luau7isSpaceEc.exit.us
  call void @llvm.lifetime.start.p0(i64 32, ptr nonnull %4) #24
  call void @_ZN4Luau5Lexer8readNextEv(ptr dead_on_unwind nonnull writable sret(%"struct.Luau::Lexeme") align 8 %4, ptr noundef nonnull align 8 dereferenceable(120) %0)
  call void @llvm.memcpy.p0.p0.i64(ptr noundef nonnull align 8 dereferenceable(32) %11, ptr noundef nonnull align 8 dereferenceable(32) %4, i64 32, i1 false), !tbaa.struct !72
  call void @llvm.lifetime.end.p0(i64 32, ptr nonnull %4) #24
  %28 = load i32, ptr %11, align 8, !tbaa !73
  %29 = and i32 %28, -2
  %switch.us = icmp eq i32 %29, 282
  br i1 %switch.us, label %.critedge2.us, label %.critedge

_ZNK4Luau5Lexer6peekchEv.exit.lr.ph.us:           ; preds = %.critedge2.us
  %30 = load ptr, ptr %0, align 8, !tbaa !51
  %.promoted5.us = load i32, ptr %7, align 4
  br label %_ZNK4Luau5Lexer6peekchEv.exit.us

.critedge2:                                       ; preds = %3
  %31 = load i64, ptr %6, align 8, !tbaa !59
  %.promoted = load i32, ptr %5, align 8, !tbaa !60
  %32 = zext i32 %.promoted to i64
  %33 = icmp ugt i64 %31, %32
  br i1 %33, label %_ZNK4Luau5Lexer6peekchEv.exit.lr.ph, label %_ZN4Luau7isSpaceEc.exit

_ZNK4Luau5Lexer6peekchEv.exit.lr.ph:              ; preds = %.critedge2
  %34 = load ptr, ptr %0, align 8, !tbaa !51
  %.promoted5 = load i32, ptr %7, align 4
  br label %_ZNK4Luau5Lexer6peekchEv.exit

_ZNK4Luau5Lexer6peekchEv.exit:                    ; preds = %_ZNK4Luau5Lexer6peekchEv.exit.lr.ph, %_ZN4Luau5Lexer10consumeAnyEv.exit
  %35 = phi i32 [ %.promoted5, %_ZNK4Luau5Lexer6peekchEv.exit.lr.ph ], [ %43, %_ZN4Luau5Lexer10consumeAnyEv.exit ]
  %36 = phi i64 [ %32, %_ZNK4Luau5Lexer6peekchEv.exit.lr.ph ], [ %44, %_ZN4Luau5Lexer10consumeAnyEv.exit ]
  %37 = phi i32 [ %.promoted, %_ZNK4Luau5Lexer6peekchEv.exit.lr.ph ], [ %.pre-phi7, %_ZN4Luau5Lexer10consumeAnyEv.exit ]
  %38 = getelementptr inbounds nuw i8, ptr %34, i64 %36
  %39 = load i8, ptr %38, align 1, !tbaa !15
  switch i8 %39, label %_ZN4Luau7isSpaceEc.exit [
    i8 10, label %40
    i8 9, label %._ZN4Luau5Lexer10consumeAnyEv.exit_crit_edge
    i8 11, label %._ZN4Luau5Lexer10consumeAnyEv.exit_crit_edge
    i8 12, label %._ZN4Luau5Lexer10consumeAnyEv.exit_crit_edge
    i8 13, label %._ZN4Luau5Lexer10consumeAnyEv.exit_crit_edge
    i8 32, label %._ZN4Luau5Lexer10consumeAnyEv.exit_crit_edge
  ]

._ZN4Luau5Lexer10consumeAnyEv.exit_crit_edge:     ; preds = %_ZNK4Luau5Lexer6peekchEv.exit, %_ZNK4Luau5Lexer6peekchEv.exit, %_ZNK4Luau5Lexer6peekchEv.exit, %_ZNK4Luau5Lexer6peekchEv.exit, %_ZNK4Luau5Lexer6peekchEv.exit
  %.pre6 = add i32 %37, 1
  br label %_ZN4Luau5Lexer10consumeAnyEv.exit

40:                                               ; preds = %_ZNK4Luau5Lexer6peekchEv.exit
  %41 = add i32 %35, 1
  store i32 %41, ptr %7, align 4, !tbaa !66
  %42 = add i32 %37, 1
  store i32 %42, ptr %8, align 8, !tbaa !67
  br label %_ZN4Luau5Lexer10consumeAnyEv.exit

_ZN4Luau5Lexer10consumeAnyEv.exit:                ; preds = %._ZN4Luau5Lexer10consumeAnyEv.exit_crit_edge, %40
  %.pre-phi7 = phi i32 [ %.pre6, %._ZN4Luau5Lexer10consumeAnyEv.exit_crit_edge ], [ %42, %40 ]
  %43 = phi i32 [ %35, %._ZN4Luau5Lexer10consumeAnyEv.exit_crit_edge ], [ %41, %40 ]
  store i32 %.pre-phi7, ptr %5, align 8, !tbaa !60
  %44 = zext i32 %.pre-phi7 to i64
  %45 = icmp ugt i64 %31, %44
  br i1 %45, label %_ZNK4Luau5Lexer6peekchEv.exit, label %_ZN4Luau7isSpaceEc.exit, !llvm.loop !71

_ZN4Luau7isSpaceEc.exit:                          ; preds = %_ZN4Luau5Lexer10consumeAnyEv.exit, %_ZNK4Luau5Lexer6peekchEv.exit, %.critedge2
  br i1 %2, label %46, label %.critedge.split

46:                                               ; preds = %_ZN4Luau7isSpaceEc.exit
  tail call void @llvm.memcpy.p0.p0.i64(ptr noundef nonnull align 8 dereferenceable(16) %10, ptr noundef nonnull align 4 dereferenceable(16) %9, i64 16, i1 false), !tbaa.struct !13
  br label %.critedge.split

.critedge.split:                                  ; preds = %46, %_ZN4Luau7isSpaceEc.exit
  call void @llvm.lifetime.start.p0(i64 32, ptr nonnull %4) #24
  call void @_ZN4Luau5Lexer8readNextEv(ptr dead_on_unwind nonnull writable sret(%"struct.Luau::Lexeme") align 8 %4, ptr noundef nonnull align 8 dereferenceable(120) %0)
  call void @llvm.memcpy.p0.p0.i64(ptr noundef nonnull align 8 dereferenceable(32) %11, ptr noundef nonnull align 8 dereferenceable(32) %4, i64 32, i1 false), !tbaa.struct !72
  call void @llvm.lifetime.end.p0(i64 32, ptr nonnull %4) #24
  br label %.critedge

.critedge:                                        ; preds = %27, %.critedge.split
  ret ptr %11
}